; Function Attrs: mustprogress uwtable
define void @_ZN8QuantLib31VegaStressedBlackScholesProcess14setStressLevelEd(ptr noundef nonnull align 8 dereferenceable(296) %this, double noundef %SL) local_unnamed_addr #6 align 2 {
entry:
  %stressLevel_ = getelementptr inbounds nuw i8, ptr %this, i64 288
  store double %SL, ptr %stressLevel_, align 8, !tbaa !62
  %vtable = load ptr, ptr %this, align 8, !tbaa !36
  %vfn = getelementptr inbounds i8, ptr %vtable, i64 16
  %0 = load ptr, ptr %vfn, align 8
  tail call void %0(ptr noundef nonnull align 8 dereferenceable(250) %this)
  ret void
}